target datalayout = "e-m:e-p270:32:32-p271:32:32-p272:64:64-i64:64-i128:128-f80:128-n8:16:32:64-S128"
target triple = "x86_64-pc-linux-gnu"

%struct.archive_string = type { ptr, i64, i64 }
%struct.tree = type { ptr, ptr, ptr, ptr, i32, i32, i32, %struct.archive_string, ptr, i64, i32, i32, i32, i32, i32, %struct.stat, %struct.stat, i32, i32, %struct.restore_time, ptr, ptr, i32, i32, i8, i8, ptr, ptr, i32, i32, i32, i32, i32, i32, i64, i64, ptr, i64 }
%struct.stat = type { i64, i64, i64, i32, i32, i32, i32, i64, i64, i64, i64, %struct.timespec, %struct.timespec, %struct.timespec, [3 x i64] }
%struct.timespec = type { i64, i64 }
%struct.restore_time = type { ptr, i64, i64, i64, i64, i32, i32 }
%struct.timeval = type { i64, i64 }

; Function Attrs: nounwind uwtable
define internal i32 @tree_current_dir_fd(ptr noundef %0) #0 {
  %2 = alloca ptr, align 8
  store ptr %0, ptr %2, align 8
  %3 = load ptr, ptr %2, align 8
  %4 = getelementptr inbounds %struct.tree, ptr %3, i32 0, i32 14
  %5 = load i32, ptr %4, align 8
  ret i32 %5
}

; Function Attrs: nounwind uwtable
define internal i32 @close_and_restore_time(i32 noundef %0, ptr noundef %1, ptr noundef %2) #0 {
  %4 = alloca i32, align 4
  %5 = alloca i32, align 4
  %6 = alloca ptr, align 8
  %7 = alloca ptr, align 8
  %8 = alloca [2 x %struct.timespec], align 16
  %9 = alloca [2 x %struct.timeval], align 16
  store i32 %0, ptr %5, align 4
  store ptr %1, ptr %6, align 8
  store ptr %2, ptr %7, align 8
  %10 = load ptr, ptr %6, align 8
  %11 = getelementptr inbounds %struct.tree, ptr %10, i32 0, i32 4
  %12 = load i32, ptr %11, align 8
  %13 = and i32 %12, 128
  %14 = icmp eq i32 %13, 0
  br i1 %14, label %20, label %15

15:                                               ; preds = %3
  %16 = load ptr, ptr %7, align 8
  %17 = getelementptr inbounds %struct.restore_time, ptr %16, i32 0, i32 6
  %18 = load i32, ptr %17, align 4
  %19 = icmp ne i32 %18, 0
  br i1 %19, label %20, label %27

20:                                               ; preds = %15, %3
  %21 = load i32, ptr %5, align 4
  %22 = icmp sge i32 %21, 0
  br i1 %22, label %23, label %26

23:                                               ; preds = %20
  %24 = load i32, ptr %5, align 4
  %25 = call i32 @close(i32 noundef %24)
  store i32 %25, ptr %4, align 4
  br label %98

26:                                               ; preds = %20
  store i32 0, ptr %4, align 4
  br label %98

27:                                               ; preds = %15
  %28 = load ptr, ptr %7, align 8
  %29 = getelementptr inbounds %struct.restore_time, ptr %28, i32 0, i32 1
  %30 = load i64, ptr %29, align 8
  %31 = getelementptr inbounds [2 x %struct.timespec], ptr %8, i64 0, i64 1
  %32 = getelementptr inbounds %struct.timespec, ptr %31, i32 0, i32 0
  store i64 %30, ptr %32, align 16
  %33 = load ptr, ptr %7, align 8
  %34 = getelementptr inbounds %struct.restore_time, ptr %33, i32 0, i32 2
  %35 = load i64, ptr %34, align 8
  %36 = getelementptr inbounds [2 x %struct.timespec], ptr %8, i64 0, i64 1
  %37 = getelementptr inbounds %struct.timespec, ptr %36, i32 0, i32 1
  store i64 %35, ptr %37, align 8
  %38 = load ptr, ptr %7, align 8
  %39 = getelementptr inbounds %struct.restore_time, ptr %38, i32 0, i32 3
  %40 = load i64, ptr %39, align 8
  %41 = getelementptr inbounds [2 x %struct.timespec], ptr %8, i64 0, i64 0
  %42 = getelementptr inbounds %struct.timespec, ptr %41, i32 0, i32 0
  store i64 %40, ptr %42, align 16
  %43 = load ptr, ptr %7, align 8
  %44 = getelementptr inbounds %struct.restore_time, ptr %43, i32 0, i32 4
  %45 = load i64, ptr %44, align 8
  %46 = getelementptr inbounds [2 x %struct.timespec], ptr %8, i64 0, i64 0
  %47 = getelementptr inbounds %struct.timespec, ptr %46, i32 0, i32 1
  store i64 %45, ptr %47, align 8
  %48 = load i32, ptr %5, align 4
  %49 = getelementptr inbounds [2 x %struct.timespec], ptr %8, i64 0, i64 0
  %50 = call i32 @futimens(i32 noundef %48, ptr noundef %49) #10
  %51 = icmp eq i32 %50, 0
  br i1 %51, label %52, label %55

52:                                               ; preds = %27
  %53 = load i32, ptr %5, align 4
  %54 = call i32 @close(i32 noundef %53)
  store i32 %54, ptr %4, align 4
  br label %98

55:                                               ; preds = %27
  %56 = load ptr, ptr %7, align 8
  %57 = getelementptr inbounds %struct.restore_time, ptr %56, i32 0, i32 1
  %58 = load i64, ptr %57, align 8
  %59 = getelementptr inbounds [2 x %struct.timeval], ptr %9, i64 0, i64 1
  %60 = getelementptr inbounds %struct.timeval, ptr %59, i32 0, i32 0
  store i64 %58, ptr %60, align 16
  %61 = load ptr, ptr %7, align 8
  %62 = getelementptr inbounds %struct.restore_time, ptr %61, i32 0, i32 2
  %63 = load i64, ptr %62, align 8
  %64 = sdiv i64 %63, 1000
  %65 = getelementptr inbounds [2 x %struct.timeval], ptr %9, i64 0, i64 1
  %66 = getelementptr inbounds %struct.timeval, ptr %65, i32 0, i32 1
  store i64 %64, ptr %66, align 8
  %67 = load ptr, ptr %7, align 8
  %68 = getelementptr inbounds %struct.restore_time, ptr %67, i32 0, i32 3
  %69 = load i64, ptr %68, align 8
  %70 = getelementptr inbounds [2 x %struct.timeval], ptr %9, i64 0, i64 0
  %71 = getelementptr inbounds %struct.timeval, ptr %70, i32 0, i32 0
  store i64 %69, ptr %71, align 16
  %72 = load ptr, ptr %7, align 8
  %73 = getelementptr inbounds %struct.restore_time, ptr %72, i32 0, i32 4
  %74 = load i64, ptr %73, align 8
  %75 = sdiv i64 %74, 1000
  %76 = getelementptr inbounds [2 x %struct.timeval], ptr %9, i64 0, i64 0
  %77 = getelementptr inbounds %struct.timeval, ptr %76, i32 0, i32 1
  store i64 %75, ptr %77, align 8
  %78 = load i32, ptr %5, align 4
  %79 = call i32 @close(i32 noundef %78)
  %80 = load ptr, ptr %6, align 8
  %81 = call i32 @tree_current_dir_fd(ptr noundef %80)
  %82 = load ptr, ptr %7, align 8
  %83 = getelementptr inbounds %struct.restore_time, ptr %82, i32 0, i32 0
  %84 = load ptr, ptr %83, align 8
  %85 = getelementptr inbounds [2 x %struct.timeval], ptr %9, i64 0, i64 0
  %86 = call i32 @futimesat(i32 noundef %81, ptr noundef %84, ptr noundef %85) #10
  %87 = icmp eq i32 %86, 0
  br i1 %87, label %88, label %89

88:                                               ; preds = %55
  store i32 0, ptr %4, align 4
  br label %98

89:                                               ; preds = %55
  %90 = load ptr, ptr %7, align 8
  %91 = getelementptr inbounds %struct.restore_time, ptr %90, i32 0, i32 0
  %92 = load ptr, ptr %91, align 8
  %93 = getelementptr inbounds [2 x %struct.timeval], ptr %9, i64 0, i64 0
  %94 = call i32 @lutimes(ptr noundef %92, ptr noundef %93) #10
  %95 = icmp ne i32 %94, 0
  br i1 %95, label %96, label %97

96:                                               ; preds = %89
  store i32 -1, ptr %4, align 4
  br label %98

97:                                               ; preds = %89
  store i32 0, ptr %4, align 4
  br label %98

98:                                               ; preds = %97, %96, %88, %52, %26, %23
  %99 = load i32, ptr %4, align 4
  ret i32 %99
}