; Function Attrs: nounwind uwtable
define internal fastcc void @close_and_restore_time(i32 noundef %0, ptr noundef readonly captures(none) %1, ptr noundef readonly captures(none) %2) unnamed_addr #0 {
  %4 = alloca [2 x %struct.timespec], align 16
  %5 = alloca [2 x %struct.timeval], align 16
  %6 = getelementptr inbounds nuw i8, ptr %1, i64 32
  %7 = load i32, ptr %6, align 8
  %8 = and i32 %7, 128
  %9 = icmp eq i32 %8, 0
  br i1 %9, label %13, label %10

10:                                               ; preds = %3
  %11 = getelementptr inbounds nuw i8, ptr %2, i64 44
  %12 = load i32, ptr %11, align 4
  %.not = icmp eq i32 %12, 0
  br i1 %.not, label %17, label %13

13:                                               ; preds = %10, %3
  %14 = icmp sgt i32 %0, -1
  br i1 %14, label %15, label %52

15:                                               ; preds = %13
  %16 = tail call i32 @close(i32 noundef %0) #17
  br label %52

17:                                               ; preds = %10
  %18 = getelementptr inbounds nuw i8, ptr %2, i64 8
  %19 = load i64, ptr %18, align 8
  %20 = getelementptr inbounds nuw i8, ptr %4, i64 16
  store i64 %19, ptr %20, align 16
  %21 = getelementptr inbounds nuw i8, ptr %2, i64 16
  %22 = load i64, ptr %21, align 8
  %23 = getelementptr inbounds nuw i8, ptr %4, i64 24
  store i64 %22, ptr %23, align 8
  %24 = getelementptr inbounds nuw i8, ptr %2, i64 24
  %25 = load i64, ptr %24, align 8
  store i64 %25, ptr %4, align 16
  %26 = getelementptr inbounds nuw i8, ptr %2, i64 32
  %27 = load i64, ptr %26, align 8
  %28 = getelementptr inbounds nuw i8, ptr %4, i64 8
  store i64 %27, ptr %28, align 8
  %29 = call i32 @futimens(i32 noundef %0, ptr noundef nonnull %4) #17
  %30 = icmp eq i32 %29, 0
  br i1 %30, label %31, label %33

31:                                               ; preds = %17
  %32 = call i32 @close(i32 noundef %0) #17
  br label %52

33:                                               ; preds = %17
  %34 = load i64, ptr %18, align 8
  %35 = getelementptr inbounds nuw i8, ptr %5, i64 16
  store i64 %34, ptr %35, align 16
  %36 = load i64, ptr %21, align 8
  %37 = sdiv i64 %36, 1000
  %38 = getelementptr inbounds nuw i8, ptr %5, i64 24
  store i64 %37, ptr %38, align 8
  %39 = load i64, ptr %24, align 8
  store i64 %39, ptr %5, align 16
  %40 = load i64, ptr %26, align 8
  %41 = sdiv i64 %40, 1000
  %42 = getelementptr inbounds nuw i8, ptr %5, i64 8
  store i64 %41, ptr %42, align 8
  %43 = call i32 @close(i32 noundef %0) #17
  %44 = getelementptr inbounds nuw i8, ptr %1, i64 104
  %45 = load i32, ptr %44, align 8
  %46 = load ptr, ptr %2, align 8
  %47 = call i32 @futimesat(i32 noundef %45, ptr noundef %46, ptr noundef nonnull %5) #17
  %48 = icmp eq i32 %47, 0
  br i1 %48, label %52, label %49

49:                                               ; preds = %33
  %50 = load ptr, ptr %2, align 8
  %51 = call i32 @lutimes(ptr noundef %50, ptr noundef nonnull %5) #17
  br label %52

52:                                               ; preds = %49, %33, %13, %31, %15
  ret void
}